target datalayout = "e-m:e-p270:32:32-p271:32:32-p272:64:64-i64:64-i128:128-f80:128-n8:16:32:64-S128"
target triple = "x86_64-pc-linux-gnu"

%"class.cv::Matx" = type { [3 x float] }

; Function Attrs: mustprogress nounwind uwtable
define internal noundef double @_ZN2cvL9normL2SqrIfdEET0_PKT_i(ptr noundef %0, i32 noundef %1) #7 {
  %3 = alloca ptr, align 8
  %4 = alloca i32, align 4
  %5 = alloca double, align 8
  %6 = alloca i32, align 4
  %7 = alloca double, align 8
  store ptr %0, ptr %3, align 8
  store i32 %1, ptr %4, align 4
  store double 0.000000e+00, ptr %5, align 8
  store i32 0, ptr %6, align 4
  br label %8

8:                                                ; preds = %23, %2
  %9 = load i32, ptr %6, align 4
  %10 = load i32, ptr %4, align 4
  %11 = icmp slt i32 %9, %10
  br i1 %11, label %12, label %26

12:                                               ; preds = %8
  %13 = load ptr, ptr %3, align 8
  %14 = load i32, ptr %6, align 4
  %15 = sext i32 %14 to i64
  %16 = getelementptr inbounds float, ptr %13, i64 %15
  %17 = load float, ptr %16, align 4
  %18 = fpext float %17 to double
  store double %18, ptr %7, align 8
  %19 = load double, ptr %7, align 8
  %20 = load double, ptr %7, align 8
  %21 = load double, ptr %5, align 8
  %22 = call double @llvm.fmuladd.f64(double %19, double %20, double %21)
  store double %22, ptr %5, align 8
  br label %23

23:                                               ; preds = %12
  %24 = load i32, ptr %6, align 4
  %25 = add nsw i32 %24, 1
  store i32 %25, ptr %6, align 4
  br label %8, !llvm.loop !51

26:                                               ; preds = %8
  %27 = load double, ptr %5, align 8
  ret double %27
}

; Function Attrs: mustprogress nounwind uwtable
define linkonce_odr noundef double @_ZSt3absd(double noundef %0) #7 comdat {
  %2 = alloca double, align 8
  store double %0, ptr %2, align 8
  %3 = load double, ptr %2, align 8
  %4 = call double @llvm.fabs.f64(double %3)
  ret double %4
}

; Function Attrs: mustprogress uwtable
define internal noundef double @_ZN2cvL4normIfLi3ELi1EEEdRKNS_4MatxIT_XT0_EXT1_EEE(ptr noundef nonnull align 4 dereferenceable(12) %0) #4 {
  %2 = alloca ptr, align 8
  store ptr %0, ptr %2, align 8
  %3 = load ptr, ptr %2, align 8
  %4 = getelementptr inbounds %"class.cv::Matx", ptr %3, i32 0, i32 0
  %5 = getelementptr inbounds [3 x float], ptr %4, i64 0, i64 0
  %6 = call noundef double @_ZN2cvL9normL2SqrIfdEET0_PKT_i(ptr noundef %5, i32 noundef 3)
  %7 = call double @sqrt(double noundef %6) #3
  ret double %7
}

; Function Attrs: mustprogress uwtable
define hidden noundef float @_ZNK2cv6dynafu7ICPImpl11huberWeightENS_3VecIfLi3EEEf(ptr noundef nonnull align 8 dereferenceable(40) %0, ptr noundef %1, float noundef %2) #4 align 2 {
  %4 = alloca float, align 4
  %5 = alloca ptr, align 8
  %6 = alloca ptr, align 8
  %7 = alloca float, align 4
  %8 = alloca float, align 4
  store ptr %0, ptr %5, align 8
  store ptr %1, ptr %6, align 8
  store float %2, ptr %7, align 4
  %9 = load float, ptr %7, align 4
  %10 = fcmp oeq float %9, 0.000000e+00
  br i1 %10, label %11, label %12

11:                                               ; preds = %3
  store float 0.000000e+00, ptr %4, align 4
  br label %27

12:                                               ; preds = %3
  %13 = call noundef double @_ZN2cvL4normIfLi3ELi1EEEdRKNS_4MatxIT_XT0_EXT1_EEE(ptr noundef nonnull align 4 dereferenceable(12) %1)
  %14 = load float, ptr %7, align 4
  %15 = fpext float %14 to double
  %16 = fdiv double %13, %15
  %17 = call noundef double @_ZSt3absd(double noundef %16)
  %18 = fptrunc double %17 to float
  store float %18, ptr %8, align 4
  %19 = load float, ptr %8, align 4
  %20 = fcmp ogt float %19, 0x3FF5851EC0000000
  br i1 %20, label %21, label %24

21:                                               ; preds = %12
  %22 = load float, ptr %8, align 4
  %23 = fdiv float 0x3FF5851EC0000000, %22
  br label %25

24:                                               ; preds = %12
  br label %25

25:                                               ; preds = %24, %21
  %26 = phi float [ %23, %21 ], [ 1.000000e+00, %24 ]
  store float %26, ptr %4, align 4
  br label %27

27:                                               ; preds = %25, %11
  %28 = load float, ptr %4, align 4
  ret float %28
}