; Function Attrs: mustprogress nofree nounwind memory(write, argmem: readwrite) uwtable
define hidden noundef float @_ZNK2cv6dynafu7ICPImpl11huberWeightENS_3VecIfLi3EEEf(ptr nocapture noundef nonnull readnone align 8 dereferenceable(40) %0, ptr nocapture noundef readonly %1, float noundef %2) local_unnamed_addr #7 align 2 {
  %4 = fcmp oeq float %2, 0.000000e+00
  br i1 %4, label %17, label %.preheader

.preheader:                                       ; preds = %3, %.preheader
  %indvars.iv.i.i = phi i64 [ %indvars.iv.next.i.i, %.preheader ], [ 0, %3 ]
  %.010.i.i = phi double [ %8, %.preheader ], [ 0.000000e+00, %3 ]
  %5 = getelementptr inbounds float, ptr %1, i64 %indvars.iv.i.i
  %6 = load float, ptr %5, align 4
  %7 = fpext float %6 to double
  %8 = tail call double @llvm.fmuladd.f64(double %7, double %7, double %.010.i.i)
  %indvars.iv.next.i.i = add nuw nsw i64 %indvars.iv.i.i, 1
  %exitcond.not.i.i = icmp eq i64 %indvars.iv.next.i.i, 3
  br i1 %exitcond.not.i.i, label %_ZN2cvL4normIfLi3ELi1EEEdRKNS_4MatxIT_XT0_EXT1_EEE.exit, label %.preheader, !llvm.loop !4

_ZN2cvL4normIfLi3ELi1EEEdRKNS_4MatxIT_XT0_EXT1_EEE.exit: ; preds = %.preheader
  %9 = tail call noundef double @sqrt(double noundef %8) #22
  %10 = fpext float %2 to double
  %11 = fdiv double %9, %10
  %12 = fptrunc double %11 to float
  %13 = tail call float @llvm.fabs.f32(float %12)
  %14 = fcmp ogt float %13, 0x3FF5851EC0000000
  %15 = fdiv float 0x3FF5851EC0000000, %13
  %16 = select i1 %14, float %15, float 1.000000e+00
  br label %17

17:                                               ; preds = %3, %_ZN2cvL4normIfLi3ELi1EEEdRKNS_4MatxIT_XT0_EXT1_EEE.exit
  %.0 = phi float [ %16, %_ZN2cvL4normIfLi3ELi1EEEdRKNS_4MatxIT_XT0_EXT1_EEE.exit ], [ 0.000000e+00, %3 ]
  ret float %.0
}